target datalayout = "e-m:e-p270:32:32-p271:32:32-p272:64:64-i64:64-i128:128-f80:128-n8:16:32:64-S128"
target triple = "x86_64-pc-linux-gnu"

%struct.Vec_Int_t_ = type { i32, i32, ptr }

; Function Attrs: nounwind uwtable
define internal i32 @Abc_AbsInt(i32 noundef %0) #0 {
  %2 = alloca i32, align 4
  store i32 %0, ptr %2, align 4
  %3 = load i32, ptr %2, align 4
  %4 = icmp slt i32 %3, 0
  br i1 %4, label %5, label %8

5:                                                ; preds = %1
  %6 = load i32, ptr %2, align 4
  %7 = sub nsw i32 0, %6
  br label %10

8:                                                ; preds = %1
  %9 = load i32, ptr %2, align 4
  br label %10

10:                                               ; preds = %8, %5
  %11 = phi i32 [ %7, %5 ], [ %9, %8 ]
  ret i32 %11
}

; Function Attrs: nounwind uwtable
define internal void @Vec_IntGrow(ptr noundef %0, i32 noundef %1) #0 {
  %3 = alloca ptr, align 8
  %4 = alloca i32, align 4
  store ptr %0, ptr %3, align 8
  store i32 %1, ptr %4, align 4
  %5 = load ptr, ptr %3, align 8
  %6 = getelementptr inbounds %struct.Vec_Int_t_, ptr %5, i32 0, i32 0
  %7 = load i32, ptr %6, align 8
  %8 = load i32, ptr %4, align 4
  %9 = icmp sge i32 %7, %8
  br i1 %9, label %10, label %11

10:                                               ; preds = %2
  br label %36

11:                                               ; preds = %2
  %12 = load ptr, ptr %3, align 8
  %13 = getelementptr inbounds %struct.Vec_Int_t_, ptr %12, i32 0, i32 2
  %14 = load ptr, ptr %13, align 8
  %15 = icmp ne ptr %14, null
  br i1 %15, label %16, label %24

16:                                               ; preds = %11
  %17 = load ptr, ptr %3, align 8
  %18 = getelementptr inbounds %struct.Vec_Int_t_, ptr %17, i32 0, i32 2
  %19 = load ptr, ptr %18, align 8
  %20 = load i32, ptr %4, align 4
  %21 = sext i32 %20 to i64
  %22 = mul i64 4, %21
  %23 = call ptr @realloc(ptr noundef %19, i64 noundef %22) #13
  br label %29

24:                                               ; preds = %11
  %25 = load i32, ptr %4, align 4
  %26 = sext i32 %25 to i64
  %27 = mul i64 4, %26
  %28 = call noalias ptr @malloc(i64 noundef %27) #10
  br label %29

29:                                               ; preds = %24, %16
  %30 = phi ptr [ %23, %16 ], [ %28, %24 ]
  %31 = load ptr, ptr %3, align 8
  %32 = getelementptr inbounds %struct.Vec_Int_t_, ptr %31, i32 0, i32 2
  store ptr %30, ptr %32, align 8
  %33 = load i32, ptr %4, align 4
  %34 = load ptr, ptr %3, align 8
  %35 = getelementptr inbounds %struct.Vec_Int_t_, ptr %34, i32 0, i32 0
  store i32 %33, ptr %35, align 8
  br label %36

36:                                               ; preds = %29, %10
  ret void
}

; Function Attrs: nounwind uwtable
define internal void @Vec_IntPushOrderAbs(ptr noundef %0, i32 noundef %1) #0 {
  %3 = alloca ptr, align 8
  %4 = alloca i32, align 4
  %5 = alloca i32, align 4
  store ptr %0, ptr %3, align 8
  store i32 %1, ptr %4, align 4
  store i32 0, ptr %5, align 4
  br label %6

6:                                                ; preds = %13, %2
  %7 = load i32, ptr %5, align 4
  %8 = load ptr, ptr %3, align 8
  %9 = getelementptr inbounds %struct.Vec_Int_t_, ptr %8, i32 0, i32 1
  %10 = load i32, ptr %9, align 4
  %11 = icmp slt i32 %7, %10
  br i1 %11, label %12, label %16

12:                                               ; preds = %6
  br label %13

13:                                               ; preds = %12
  %14 = load i32, ptr %5, align 4
  %15 = add nsw i32 %14, 1
  store i32 %15, ptr %5, align 4
  br label %6, !llvm.loop !65

16:                                               ; preds = %6
  %17 = load ptr, ptr %3, align 8
  %18 = getelementptr inbounds %struct.Vec_Int_t_, ptr %17, i32 0, i32 1
  %19 = load i32, ptr %18, align 4
  %20 = load ptr, ptr %3, align 8
  %21 = getelementptr inbounds %struct.Vec_Int_t_, ptr %20, i32 0, i32 0
  %22 = load i32, ptr %21, align 8
  %23 = icmp eq i32 %19, %22
  br i1 %23, label %24, label %38

24:                                               ; preds = %16
  %25 = load ptr, ptr %3, align 8
  %26 = getelementptr inbounds %struct.Vec_Int_t_, ptr %25, i32 0, i32 0
  %27 = load i32, ptr %26, align 8
  %28 = icmp slt i32 %27, 16
  br i1 %28, label %29, label %31

29:                                               ; preds = %24
  %30 = load ptr, ptr %3, align 8
  call void @Vec_IntGrow(ptr noundef %30, i32 noundef 16)
  br label %37

31:                                               ; preds = %24
  %32 = load ptr, ptr %3, align 8
  %33 = load ptr, ptr %3, align 8
  %34 = getelementptr inbounds %struct.Vec_Int_t_, ptr %33, i32 0, i32 0
  %35 = load i32, ptr %34, align 8
  %36 = mul nsw i32 2, %35
  call void @Vec_IntGrow(ptr noundef %32, i32 noundef %36)
  br label %37

37:                                               ; preds = %31, %29
  br label %38

38:                                               ; preds = %37, %16
  %39 = load ptr, ptr %3, align 8
  %40 = getelementptr inbounds %struct.Vec_Int_t_, ptr %39, i32 0, i32 1
  %41 = load i32, ptr %40, align 4
  %42 = add nsw i32 %41, 1
  store i32 %42, ptr %40, align 4
  %43 = load ptr, ptr %3, align 8
  %44 = getelementptr inbounds %struct.Vec_Int_t_, ptr %43, i32 0, i32 1
  %45 = load i32, ptr %44, align 4
  %46 = sub nsw i32 %45, 2
  store i32 %46, ptr %5, align 4
  br label %47

47:                                               ; preds = %79, %38
  %48 = load i32, ptr %5, align 4
  %49 = icmp sge i32 %48, 0
  br i1 %49, label %50, label %82

50:                                               ; preds = %47
  %51 = load ptr, ptr %3, align 8
  %52 = getelementptr inbounds %struct.Vec_Int_t_, ptr %51, i32 0, i32 2
  %53 = load ptr, ptr %52, align 8
  %54 = load i32, ptr %5, align 4
  %55 = sext i32 %54 to i64
  %56 = getelementptr inbounds i32, ptr %53, i64 %55
  %57 = load i32, ptr %56, align 4
  %58 = call i32 @Abc_AbsInt(i32 noundef %57)
  %59 = load i32, ptr %4, align 4
  %60 = call i32 @Abc_AbsInt(i32 noundef %59)
  %61 = icmp slt i32 %58, %60
  br i1 %61, label %62, label %77

62:                                               ; preds = %50
  %63 = load ptr, ptr %3, align 8
  %64 = getelementptr inbounds %struct.Vec_Int_t_, ptr %63, i32 0, i32 2
  %65 = load ptr, ptr %64, align 8
  %66 = load i32, ptr %5, align 4
  %67 = sext i32 %66 to i64
  %68 = getelementptr inbounds i32, ptr %65, i64 %67
  %69 = load i32, ptr %68, align 4
  %70 = load ptr, ptr %3, align 8
  %71 = getelementptr inbounds %struct.Vec_Int_t_, ptr %70, i32 0, i32 2
  %72 = load ptr, ptr %71, align 8
  %73 = load i32, ptr %5, align 4
  %74 = add nsw i32 %73, 1
  %75 = sext i32 %74 to i64
  %76 = getelementptr inbounds i32, ptr %72, i64 %75
  store i32 %69, ptr %76, align 4
  br label %78

77:                                               ; preds = %50
  br label %82

78:                                               ; preds = %62
  br label %79

79:                                               ; preds = %78
  %80 = load i32, ptr %5, align 4
  %81 = add nsw i32 %80, -1
  store i32 %81, ptr %5, align 4
  br label %47, !llvm.loop !66

82:                                               ; preds = %77, %47
  %83 = load i32, ptr %4, align 4
  %84 = load ptr, ptr %3, align 8
  %85 = getelementptr inbounds %struct.Vec_Int_t_, ptr %84, i32 0, i32 2
  %86 = load ptr, ptr %85, align 8
  %87 = load i32, ptr %5, align 4
  %88 = add nsw i32 %87, 1
  %89 = sext i32 %88 to i64
  %90 = getelementptr inbounds i32, ptr %86, i64 %89
  store i32 %83, ptr %90, align 4
  ret void
}