; Function Attrs: nounwind uwtable
define internal fastcc void @Vec_IntPushOrderAbs(ptr noundef captures(none) %0, i32 noundef %1) unnamed_addr #0 {
  %3 = getelementptr inbounds nuw i8, ptr %0, i64 4
  %4 = load i32, ptr %3, align 4
  %5 = load i32, ptr %0, align 8
  %6 = icmp eq i32 %4, %5
  br i1 %6, label %7, label %Vec_IntGrow.exit26

7:                                                ; preds = %2
  %8 = icmp slt i32 %4, 16
  br i1 %8, label %9, label %17

9:                                                ; preds = %7
  %10 = getelementptr inbounds nuw i8, ptr %0, i64 8
  %11 = load ptr, ptr %10, align 8
  %.not9.i = icmp eq ptr %11, null
  br i1 %.not9.i, label %14, label %12

12:                                               ; preds = %9
  %13 = tail call dereferenceable_or_null(64) ptr @realloc(ptr noundef nonnull %11, i64 noundef 64) #24
  br label %Vec_IntGrow.exit

14:                                               ; preds = %9
  %15 = tail call noalias dereferenceable_or_null(64) ptr @malloc(i64 noundef 64) #25
  br label %Vec_IntGrow.exit

Vec_IntGrow.exit:                                 ; preds = %12, %14
  %16 = phi ptr [ %13, %12 ], [ %15, %14 ]
  store ptr %16, ptr %10, align 8
  br label %Vec_IntGrow.exit26thread-pre-split

17:                                               ; preds = %7
  %18 = shl nuw nsw i32 %4, 1
  %19 = getelementptr inbounds nuw i8, ptr %0, i64 8
  %20 = load ptr, ptr %19, align 8
  %.not9.i25 = icmp eq ptr %20, null
  %21 = zext nneg i32 %18 to i64
  %22 = shl nuw nsw i64 %21, 2
  br i1 %.not9.i25, label %25, label %23

23:                                               ; preds = %17
  %24 = tail call ptr @realloc(ptr noundef nonnull %20, i64 noundef %22) #24
  br label %27

25:                                               ; preds = %17
  %26 = tail call noalias ptr @malloc(i64 noundef %22) #25
  br label %27

27:                                               ; preds = %25, %23
  %28 = phi ptr [ %24, %23 ], [ %26, %25 ]
  store ptr %28, ptr %19, align 8
  br label %Vec_IntGrow.exit26thread-pre-split

Vec_IntGrow.exit26thread-pre-split:               ; preds = %Vec_IntGrow.exit, %27
  %.sink = phi i32 [ 16, %Vec_IntGrow.exit ], [ %18, %27 ]
  store i32 %.sink, ptr %0, align 8
  %.pr = load i32, ptr %3, align 4
  br label %Vec_IntGrow.exit26

Vec_IntGrow.exit26:                               ; preds = %Vec_IntGrow.exit26thread-pre-split, %2
  %29 = phi i32 [ %.pr, %Vec_IntGrow.exit26thread-pre-split ], [ %4, %2 ]
  %30 = add nsw i32 %29, 1
  store i32 %30, ptr %3, align 4
  %31 = getelementptr inbounds nuw i8, ptr %0, i64 8
  %32 = icmp sgt i32 %29, 0
  br i1 %32, label %.lr.ph, label %._crit_edge

.lr.ph:                                           ; preds = %Vec_IntGrow.exit26
  %33 = tail call range(i32 0, -2147483648) i32 @llvm.abs.i32(i32 %1, i1 true)
  %34 = zext nneg i32 %29 to i64
  br label %35

35:                                               ; preds = %.lr.ph, %41
  %indvars.iv = phi i64 [ %34, %.lr.ph ], [ %indvars.iv.next, %41 ]
  %indvars.iv.next = add nsw i64 %indvars.iv, -1
  %36 = load ptr, ptr %31, align 8
  %37 = getelementptr inbounds nuw i32, ptr %36, i64 %indvars.iv.next
  %38 = load i32, ptr %37, align 4
  %39 = tail call range(i32 0, -2147483648) i32 @llvm.abs.i32(i32 %38, i1 true)
  %40 = icmp samesign ult i32 %39, %33
  br i1 %40, label %41, label %._crit_edge.loopexit.split.loop.exit

41:                                               ; preds = %35
  %42 = getelementptr inbounds nuw i32, ptr %36, i64 %indvars.iv
  store i32 %38, ptr %42, align 4
  %43 = icmp samesign ugt i64 %indvars.iv, 1
  br i1 %43, label %35, label %._crit_edge, !llvm.loop !59

._crit_edge.loopexit.split.loop.exit:             ; preds = %35
  %44 = trunc nuw nsw i64 %indvars.iv to i32
  br label %._crit_edge

._crit_edge:                                      ; preds = %41, %._crit_edge.loopexit.split.loop.exit, %Vec_IntGrow.exit26
  %.1.in.lcssa = phi i32 [ %29, %Vec_IntGrow.exit26 ], [ %44, %._crit_edge.loopexit.split.loop.exit ], [ 0, %41 ]
  %45 = load ptr, ptr %31, align 8
  %46 = sext i32 %.1.in.lcssa to i64
  %47 = getelementptr inbounds i32, ptr %45, i64 %46
  store i32 %1, ptr %47, align 4
  ret void
}